; Function Attrs: mustprogress uwtable
define void @_ZN19OpenColorIO_v2_5dev19AllocationTransformC2Ev(ptr noundef nonnull writeonly align 8 captures(none) dereferenceable(16) initializes((0, 16)) %0) unnamed_addr #0 align 2 personality ptr @__gxx_personality_v0 {
  store ptr getelementptr inbounds nuw inrange(-16, 56) (i8, ptr @_ZTVN19OpenColorIO_v2_5dev19AllocationTransformE, i64 16), ptr %0, align 8, !tbaa !12
  %2 = tail call noalias noundef nonnull dereferenceable(32) ptr @_Znwm(i64 noundef 32) #21
  %3 = getelementptr inbounds nuw i8, ptr %0, i64 8
  store i32 0, ptr %2, align 8, !tbaa !22
  %4 = getelementptr inbounds nuw i8, ptr %2, i64 4
  store i32 1, ptr %4, align 4, !tbaa !31
  %5 = getelementptr inbounds nuw i8, ptr %2, i64 8
  tail call void @llvm.memset.p0.i64(ptr noundef nonnull align 8 dereferenceable(24) %5, i8 0, i64 24, i1 false)
  store ptr %2, ptr %3, align 8, !tbaa !32
  ret void
}